; Function Attrs: mustprogress uwtable
define hidden noundef zeroext i1 @_ZN2cv11large_kinfu14LargeKinfuImplINS_4UMatEE6updateERKNS_11_InputArrayE(ptr noundef nonnull align 8 dereferenceable(372) %0, ptr noundef nonnull align 8 dereferenceable(24) %1) unnamed_addr #3 align 2 personality ptr @__gxx_personality_v0 {
  %3 = alloca %"class.std::__cxx11::basic_string", align 8
  %4 = alloca %"class.std::allocator.12", align 1
  %5 = alloca %"class.cv::UMat", align 8
  %6 = alloca %"class.cv::_OutputArray", align 8
  %7 = alloca %"class.cv::UMat", align 8
  %8 = tail call noundef zeroext i1 @_ZNK2cv11_InputArray5emptyEv(ptr noundef nonnull align 8 dereferenceable(24) %1)
  br i1 %8, label %.critedge, label %9

9:                                                ; preds = %2
  %10 = tail call i64 @_ZNK2cv11_InputArray4sizeEi(ptr noundef nonnull align 8 dereferenceable(24) %1, i32 noundef -1)
  %.sroa.0.0.extract.trunc = trunc i64 %10 to i32
  %.sroa.2.0.extract.shift = lshr i64 %10, 32
  %.sroa.2.0.extract.trunc = trunc nuw i64 %.sroa.2.0.extract.shift to i32
  %11 = getelementptr inbounds i8, ptr %0, i64 8
  %.val17 = load i32, ptr %11, align 8
  %12 = getelementptr inbounds i8, ptr %0, i64 12
  %.val18 = load i32, ptr %12, align 4
  %13 = icmp eq i32 %.val17, %.sroa.0.0.extract.trunc
  %14 = icmp eq i32 %.val18, %.sroa.2.0.extract.trunc
  %15 = select i1 %13, i1 %14, i1 false
  br i1 %15, label %23, label %.critedge

.critedge:                                        ; preds = %2, %9
  call void @_ZNSaIcEC1Ev(ptr noundef nonnull align 1 dereferenceable(1) %4) #23
  invoke void @_ZNSt7__cxx1112basic_stringIcSt11char_traitsIcESaIcEEC1EPKcRKS3_(ptr noundef nonnull align 8 dereferenceable(32) %3, ptr noundef nonnull @.str, ptr noundef nonnull align 1 dereferenceable(1) %4)
          to label %16 unwind label %18

16:                                               ; preds = %.critedge
  invoke void @_ZN2cv5errorEiRKNSt7__cxx1112basic_stringIcSt11char_traitsIcESaIcEEEPKcS9_i(i32 noundef -215, ptr noundef nonnull align 8 dereferenceable(32) %3, ptr noundef nonnull @__func__._ZN2cv11large_kinfu14LargeKinfuImplINS_3MatEE6updateERKNS_11_InputArrayE, ptr noundef nonnull @.str.2, i32 noundef 198) #24
          to label %17 unwind label %20

17:                                               ; preds = %16
  unreachable

18:                                               ; preds = %.critedge
  %19 = landingpad { ptr, i32 }
          cleanup
  br label %22

20:                                               ; preds = %16
  %21 = landingpad { ptr, i32 }
          cleanup
  call void @_ZNSt7__cxx1112basic_stringIcSt11char_traitsIcESaIcEED1Ev(ptr noundef nonnull align 8 dereferenceable(32) %3) #23
  br label %22

22:                                               ; preds = %20, %18
  %.pn = phi { ptr, i32 } [ %21, %20 ], [ %19, %18 ]
  call void @_ZNSaIcED1Ev(ptr noundef nonnull align 1 dereferenceable(1) %4) #23
  br label %44

23:                                               ; preds = %9
  call void @_ZN2cv4UMatC1ENS_14UMatUsageFlagsE(ptr noundef nonnull align 8 dereferenceable(80) %5, i32 noundef 0) #23
  %24 = invoke noundef i32 @_ZNK2cv11_InputArray4kindEv(ptr noundef nonnull align 8 dereferenceable(24) %1)
          to label %25 unwind label %32

25:                                               ; preds = %23
  %26 = icmp eq i32 %24, 655360
  br i1 %26, label %36, label %27

27:                                               ; preds = %25
  %28 = getelementptr inbounds i8, ptr %6, i64 8
  %29 = getelementptr inbounds i8, ptr %6, i64 16
  store i64 0, ptr %29, align 8
  store i32 34209792, ptr %6, align 8
  store ptr %5, ptr %28, align 8
  invoke void @_ZNK2cv11_InputArray6copyToERKNS_12_OutputArrayE(ptr noundef nonnull align 8 dereferenceable(24) %1, ptr noundef nonnull align 8 dereferenceable(24) %6)
          to label %30 unwind label %34

30:                                               ; preds = %27
  %31 = invoke noundef zeroext i1 @_ZN2cv11large_kinfu14LargeKinfuImplINS_4UMatEE7updateTERKS2_(ptr noundef nonnull align 8 dereferenceable(372) %0, ptr noundef nonnull align 8 dereferenceable(80) %5)
          to label %42 unwind label %32

32:                                               ; preds = %23, %36, %30
  %33 = landingpad { ptr, i32 }
          cleanup
  br label %43

34:                                               ; preds = %27
  %35 = landingpad { ptr, i32 }
          cleanup
  br label %43

36:                                               ; preds = %25
  invoke void @_ZNK2cv11_InputArray7getUMatEi(ptr dead_on_unwind nonnull writable sret(%"class.cv::UMat") align 8 %7, ptr noundef nonnull align 8 dereferenceable(24) %1, i32 noundef -1)
          to label %37 unwind label %32

37:                                               ; preds = %36
  %38 = invoke noundef zeroext i1 @_ZN2cv11large_kinfu14LargeKinfuImplINS_4UMatEE7updateTERKS2_(ptr noundef nonnull align 8 dereferenceable(372) %0, ptr noundef nonnull align 8 dereferenceable(80) %7)
          to label %39 unwind label %40

39:                                               ; preds = %37
  call void @_ZN2cv4UMatD1Ev(ptr noundef nonnull align 8 dereferenceable(80) %7) #23
  br label %42

40:                                               ; preds = %37
  %41 = landingpad { ptr, i32 }
          cleanup
  call void @_ZN2cv4UMatD1Ev(ptr noundef nonnull align 8 dereferenceable(80) %7) #23
  br label %43

42:                                               ; preds = %30, %39
  %.011 = phi i1 [ %38, %39 ], [ %31, %30 ]
  call void @_ZN2cv4UMatD1Ev(ptr noundef nonnull align 8 dereferenceable(80) %5) #23
  ret i1 %.011

43:                                               ; preds = %40, %34, %32
  %.pn13 = phi { ptr, i32 } [ %41, %40 ], [ %33, %32 ], [ %35, %34 ]
  call void @_ZN2cv4UMatD1Ev(ptr noundef nonnull align 8 dereferenceable(80) %5) #23
  br label %44

44:                                               ; preds = %43, %22
  %.pn13.pn = phi { ptr, i32 } [ %.pn13, %43 ], [ %.pn, %22 ]
  resume { ptr, i32 } %.pn13.pn
}